; ModuleID = '38/676.c'
source_filename = "38/676.c"
target datalayout = "e-m:e-p270:32:32-p271:32:32-p272:64:64-i64:64-f80:128-n8:16:32:64-S128"
target triple = "x86_64-pc-linux-gnu"

@.str = private unnamed_addr constant [3 x i8] c"%d\00", align 1
@.str.1 = private unnamed_addr constant [4 x i8] c"%lf\00", align 1
@.str.2 = private unnamed_addr constant [7 x i8] c"%.5lf\0A\00", align 1

; Function Attrs: noinline nounwind uwtable
define dso_local i32 @main() #0 {
  %1 = alloca i32, align 4
  %2 = alloca i32, align 4
  %3 = alloca i32, align 4
  %4 = alloca i32, align 4
  %5 = alloca i32, align 4
  %6 = alloca [1000 x double], align 16
  %7 = alloca double, align 8
  %8 = alloca double, align 8
  %9 = alloca double, align 8
  store i32 0, i32* %1, align 4
  store double 0.000000e+00, double* %7, align 8
  store double 0.000000e+00, double* %8, align 8
  %10 = call i32 (i8*, ...) @__isoc99_scanf(i8* getelementptr inbounds ([3 x i8], [3 x i8]* @.str, i64 0, i64 0), i32* %2)
  store i32 0, i32* %3, align 4
  br label %11

11:                                               ; preds = %76, %0
  %12 = load i32, i32* %3, align 4
  %13 = load i32, i32* %2, align 4
  %14 = icmp slt i32 %12, %13
  br i1 %14, label %15, label %79

15:                                               ; preds = %11
  store double 0.000000e+00, double* %7, align 8
  store double 0.000000e+00, double* %8, align 8
  %16 = call i32 (i8*, ...) @__isoc99_scanf(i8* getelementptr inbounds ([3 x i8], [3 x i8]* @.str, i64 0, i64 0), i32* %4)
  store i32 0, i32* %5, align 4
  br label %17

17:                                               ; preds = %32, %15
  %18 = load i32, i32* %5, align 4
  %19 = load i32, i32* %4, align 4
  %20 = icmp slt i32 %18, %19
  br i1 %20, label %21, label %35

21:                                               ; preds = %17
  %22 = load i32, i32* %5, align 4
  %23 = sext i32 %22 to i64
  %24 = getelementptr inbounds [1000 x double], [1000 x double]* %6, i64 0, i64 %23
  %25 = call i32 (i8*, ...) @__isoc99_scanf(i8* getelementptr inbounds ([4 x i8], [4 x i8]* @.str.1, i64 0, i64 0), double* %24)
  %26 = load i32, i32* %5, align 4
  %27 = sext i32 %26 to i64
  %28 = getelementptr inbounds [1000 x double], [1000 x double]* %6, i64 0, i64 %27
  %29 = load double, double* %28, align 8
  %30 = load double, double* %7, align 8
  %31 = fadd double %30, %29
  store double %31, double* %7, align 8
  br label %32

32:                                               ; preds = %21
  %33 = load i32, i32* %5, align 4
  %34 = add nsw i32 %33, 1
  store i32 %34, i32* %5, align 4
  br label %17

35:                                               ; preds = %17
  store i32 0, i32* %5, align 4
  br label %36

36:                                               ; preds = %68, %35
  %37 = load i32, i32* %5, align 4
  %38 = load i32, i32* %4, align 4
  %39 = icmp slt i32 %37, %38
  br i1 %39, label %40, label %71

40:                                               ; preds = %36
  %41 = load i32, i32* %5, align 4
  %42 = sext i32 %41 to i64
  %43 = getelementptr inbounds [1000 x double], [1000 x double]* %6, i64 0, i64 %42
  %44 = load double, double* %43, align 8
  %45 = load double, double* %7, align 8
  %46 = load i32, i32* %4, align 4
  %47 = sitofp i32 %46 to double
  %48 = fmul double %47, 1.000000e+00
  %49 = fdiv double %45, %48
  %50 = fsub double %44, %49
  %51 = load i32, i32* %5, align 4
  %52 = sext i32 %51 to i64
  %53 = getelementptr inbounds [1000 x double], [1000 x double]* %6, i64 0, i64 %52
  %54 = load double, double* %53, align 8
  %55 = load double, double* %7, align 8
  %56 = load i32, i32* %4, align 4
  %57 = sitofp i32 %56 to double
  %58 = fmul double %57, 1.000000e+00
  %59 = fdiv double %55, %58
  %60 = fsub double %54, %59
  %61 = fmul double %50, %60
  %62 = load i32, i32* %4, align 4
  %63 = sitofp i32 %62 to double
  %64 = fmul double %63, 1.000000e+00
  %65 = fdiv double %61, %64
  %66 = load double, double* %8, align 8
  %67 = fadd double %66, %65
  store double %67, double* %8, align 8
  br label %68

68:                                               ; preds = %40
  %69 = load i32, i32* %5, align 4
  %70 = add nsw i32 %69, 1
  store i32 %70, i32* %5, align 4
  br label %36

71:                                               ; preds = %36
  %72 = load double, double* %8, align 8
  %73 = call double @pow(double %72, double 5.000000e-01) #3
  store double %73, double* %9, align 8
  %74 = load double, double* %9, align 8
  %75 = call i32 (i8*, ...) @printf(i8* getelementptr inbounds ([7 x i8], [7 x i8]* @.str.2, i64 0, i64 0), double %74)
  br label %76

76:                                               ; preds = %71
  %77 = load i32, i32* %3, align 4
  %78 = add nsw i32 %77, 1
  store i32 %78, i32* %3, align 4
  br label %11

79:                                               ; preds = %11
  ret i32 0
}

declare dso_local i32 @__isoc99_scanf(i8*, ...) #1

; Function Attrs: nounwind
declare dso_local double @pow(double, double) #2

declare dso_local i32 @printf(i8*, ...) #1


!llvm.module.flags = !{!0}
!llvm.ident = !{!1}

!0 = !{i32 1, !"wchar_size", i32 4}
!1 = !{!"clang version 10.0.0-4ubuntu1 "}
