; ModuleID = 'source-C-CXX/37/676.c'
source_filename = "source-C-CXX/37/676.c"
target datalayout = "e-m:e-p270:32:32-p271:32:32-p272:64:64-i64:64-f80:128-n8:16:32:64-S128"
target triple = "x86_64-pc-linux-gnu"

@.str = private unnamed_addr constant [3 x i8] c"%d\00", align 1
@.str.1 = private unnamed_addr constant [4 x i8] c"%lf\00", align 1
@.str.2 = private unnamed_addr constant [7 x i8] c"%.5lf\0A\00", align 1

; Function Attrs: nofree nounwind sspstrong uwtable
define dso_local i32 @main() local_unnamed_addr #0 {
  %1 = alloca i32, align 4
  %2 = alloca i32, align 4
  %3 = alloca [1000 x double], align 16
  %4 = bitcast i32* %1 to i8*
  call void @llvm.lifetime.start.p0i8(i64 4, i8* nonnull %4) #4
  %5 = bitcast i32* %2 to i8*
  call void @llvm.lifetime.start.p0i8(i64 4, i8* nonnull %5) #4
  %6 = bitcast [1000 x double]* %3 to i8*
  call void @llvm.lifetime.start.p0i8(i64 8000, i8* nonnull %6) #4
  %7 = call i32 (i8*, ...) @__isoc99_scanf(i8* getelementptr inbounds ([3 x i8], [3 x i8]* @.str, i64 0, i64 0), i32* nonnull %1)
  %8 = load i32, i32* %1, align 4, !tbaa !5
  %9 = icmp sgt i32 %8, 0
  br i1 %9, label %10, label %75

10:                                               ; preds = %0, %68
  %11 = phi i32 [ %72, %68 ], [ 0, %0 ]
  %12 = call i32 (i8*, ...) @__isoc99_scanf(i8* getelementptr inbounds ([3 x i8], [3 x i8]* @.str, i64 0, i64 0), i32* nonnull %2)
  %13 = load i32, i32* %2, align 4, !tbaa !5
  %14 = icmp sgt i32 %13, 0
  br i1 %14, label %25, label %68

15:                                               ; preds = %25
  %16 = sitofp i32 %33 to double
  %17 = fdiv double %31, %16
  %18 = icmp sgt i32 %33, 0
  br i1 %18, label %19, label %68

19:                                               ; preds = %15
  %20 = zext i32 %33 to i64
  %21 = and i64 %20, 1
  %22 = icmp eq i32 %33, 1
  br i1 %22, label %56, label %23

23:                                               ; preds = %19
  %24 = and i64 %20, 4294967294
  br label %36

25:                                               ; preds = %10, %25
  %26 = phi i64 [ %32, %25 ], [ 0, %10 ]
  %27 = phi double [ %31, %25 ], [ 0.000000e+00, %10 ]
  %28 = getelementptr inbounds [1000 x double], [1000 x double]* %3, i64 0, i64 %26
  %29 = call i32 (i8*, ...) @__isoc99_scanf(i8* getelementptr inbounds ([4 x i8], [4 x i8]* @.str.1, i64 0, i64 0), double* nonnull %28)
  %30 = load double, double* %28, align 8, !tbaa !9
  %31 = fadd double %27, %30
  %32 = add nuw nsw i64 %26, 1
  %33 = load i32, i32* %2, align 4, !tbaa !5
  %34 = sext i32 %33 to i64
  %35 = icmp slt i64 %32, %34
  br i1 %35, label %25, label %15, !llvm.loop !11

36:                                               ; preds = %36, %23
  %37 = phi i64 [ 0, %23 ], [ %53, %36 ]
  %38 = phi double [ 0.000000e+00, %23 ], [ %52, %36 ]
  %39 = phi i64 [ %24, %23 ], [ %54, %36 ]
  %40 = getelementptr inbounds [1000 x double], [1000 x double]* %3, i64 0, i64 %37
  %41 = load double, double* %40, align 16, !tbaa !9
  %42 = fsub double %41, %17
  %43 = fmul double %42, %42
  %44 = fdiv double %43, %16
  %45 = fadd double %38, %44
  %46 = or i64 %37, 1
  %47 = getelementptr inbounds [1000 x double], [1000 x double]* %3, i64 0, i64 %46
  %48 = load double, double* %47, align 8, !tbaa !9
  %49 = fsub double %48, %17
  %50 = fmul double %49, %49
  %51 = fdiv double %50, %16
  %52 = fadd double %45, %51
  %53 = add nuw nsw i64 %37, 2
  %54 = add i64 %39, -2
  %55 = icmp eq i64 %54, 0
  br i1 %55, label %56, label %36, !llvm.loop !13

56:                                               ; preds = %36, %19
  %57 = phi double [ undef, %19 ], [ %52, %36 ]
  %58 = phi i64 [ 0, %19 ], [ %53, %36 ]
  %59 = phi double [ 0.000000e+00, %19 ], [ %52, %36 ]
  %60 = icmp eq i64 %21, 0
  br i1 %60, label %68, label %61

61:                                               ; preds = %56
  %62 = getelementptr inbounds [1000 x double], [1000 x double]* %3, i64 0, i64 %58
  %63 = load double, double* %62, align 8, !tbaa !9
  %64 = fsub double %63, %17
  %65 = fmul double %64, %64
  %66 = fdiv double %65, %16
  %67 = fadd double %59, %66
  br label %68

68:                                               ; preds = %61, %56, %10, %15
  %69 = phi double [ 0.000000e+00, %15 ], [ 0.000000e+00, %10 ], [ %57, %56 ], [ %67, %61 ]
  %70 = call double @pow(double %69, double 5.000000e-01) #4
  %71 = call i32 (i8*, ...) @printf(i8* nonnull dereferenceable(1) getelementptr inbounds ([7 x i8], [7 x i8]* @.str.2, i64 0, i64 0), double %70)
  %72 = add nuw nsw i32 %11, 1
  %73 = load i32, i32* %1, align 4, !tbaa !5
  %74 = icmp slt i32 %72, %73
  br i1 %74, label %10, label %75, !llvm.loop !14

75:                                               ; preds = %68, %0
  call void @llvm.lifetime.end.p0i8(i64 8000, i8* nonnull %6) #4
  call void @llvm.lifetime.end.p0i8(i64 4, i8* nonnull %5) #4
  call void @llvm.lifetime.end.p0i8(i64 4, i8* nonnull %4) #4
  ret i32 0
}

; Function Attrs: argmemonly mustprogress nofree nosync nounwind willreturn
declare void @llvm.lifetime.start.p0i8(i64 immarg, i8* nocapture) #1

; Function Attrs: nofree nounwind
declare noundef i32 @__isoc99_scanf(i8* nocapture noundef readonly, ...) local_unnamed_addr #2

; Function Attrs: mustprogress nofree nounwind willreturn
declare double @pow(double, double) local_unnamed_addr #3

; Function Attrs: nofree nounwind
declare noundef i32 @printf(i8* nocapture noundef readonly, ...) local_unnamed_addr #2

; Function Attrs: argmemonly mustprogress nofree nosync nounwind willreturn
declare void @llvm.lifetime.end.p0i8(i64 immarg, i8* nocapture) #1


!llvm.module.flags = !{!0, !1, !2, !3}
!llvm.ident = !{!4}

!0 = !{i32 1, !"wchar_size", i32 4}
!1 = !{i32 7, !"PIC Level", i32 2}
!2 = !{i32 7, !"PIE Level", i32 2}
!3 = !{i32 7, !"uwtable", i32 1}
!4 = !{!"clang version 13.0.0"}
!5 = !{!6, !6, i64 0}
!6 = !{!"int", !7, i64 0}
!7 = !{!"omnipotent char", !8, i64 0}
!8 = !{!"Simple C/C++ TBAA"}
!9 = !{!10, !10, i64 0}
!10 = !{!"double", !7, i64 0}
!11 = distinct !{!11, !12}
!12 = !{!"llvm.loop.mustprogress"}
!13 = distinct !{!13, !12}
!14 = distinct !{!14, !12}
